ARM GAS  C:\Users\mgnocco\AppData\Local\Temp\ccP0u4uz.s 			page 1


   1              		.syntax unified
   2              		.cpu cortex-m3
   3              		.fpu softvfp
   4              		.eabi_attribute 20, 1
   5              		.eabi_attribute 21, 1
   6              		.eabi_attribute 23, 3
   7              		.eabi_attribute 24, 1
   8              		.eabi_attribute 25, 1
   9              		.eabi_attribute 26, 1
  10              		.eabi_attribute 30, 4
  11              		.eabi_attribute 34, 1
  12              		.eabi_attribute 18, 4
  13              		.thumb
  14              		.syntax unified
  15              		.file	"main.c"
  16              		.text
  17              	.Ltext0:
  18              		.cfi_sections	.debug_frame
  19              		.section	.text.startup.main,"ax",%progbits
  20              		.align	1
  21              		.global	main
  22              		.thumb
  23              		.thumb_func
  24              		.type	main, %function
  25              	main:
  26              	.LFB64:
  27              		.file 1 "main.c"
   1:main.c        **** /* ========================================
   2:main.c        ****  *
   3:main.c        ****  * Copyright YOUR COMPANY, THE YEAR
   4:main.c        ****  * All Rights Reserved
   5:main.c        ****  * UNPUBLISHED, LICENSED SOFTWARE.
   6:main.c        ****  *
   7:main.c        ****  * CONFIDENTIAL AND PROPRIETARY INFORMATION
   8:main.c        ****  * WHICH IS THE PROPERTY OF your company.
   9:main.c        ****  *
  10:main.c        ****  * ========================================
  11:main.c        **** */
  12:main.c        **** 
  13:main.c        **** #include "header01.h"
  14:main.c        **** #include "globals.h"
  15:main.c        **** #include <project.h>
  16:main.c        **** int IMU_ack;
  17:main.c        **** 
  18:main.c        **** //uint8 SensorHub[6] = {LSM6DSRX_SENSOR_HUB_1, LSM6DSRX_SENSOR_HUB_2, LSM6DSRX_SENSOR_HUB_3, LSM6DS
  19:main.c        **** struct st_imu_data g_imu, g_imuNew;
  20:main.c        **** uint8 Mag[2][10][6];
  21:main.c        **** uint8 Accel[2][10][6];
  22:main.c        **** uint8 Gyro[2][10][6];
  23:main.c        **** uint8 Temp[2];
  24:main.c        **** uint8 GDA;
  25:main.c        **** uint8 XLDA;
  26:main.c        **** uint8 SENS_HUB_ENDOP;
  27:main.c        **** uint16 t0;
  28:main.c        **** uint16 t1;
  29:main.c        **** uint16 tempo[10];
  30:main.c        **** uint8 j;
ARM GAS  C:\Users\mgnocco\AppData\Local\Temp\ccP0u4uz.s 			page 2


  31:main.c        **** uint8 count;
  32:main.c        **** uint8 k;
  33:main.c        **** uint8 var;
  34:main.c        **** 
  35:main.c        **** int main()
  36:main.c        **** {   MY_TIMER_Start();                 
  28              		.loc 1 36 0
  29              		.cfi_startproc
  30              		@ args = 0, pretend = 0, frame = 8
  31              		@ frame_needed = 0, uses_anonymous_args = 0
  32 0000 2DE9F74F 		push	{r0, r1, r2, r4, r5, r6, r7, r8, r9, r10, fp, lr}
  33              		.cfi_def_cfa_offset 48
  34              		.cfi_offset 4, -36
  35              		.cfi_offset 5, -32
  36              		.cfi_offset 6, -28
  37              		.cfi_offset 7, -24
  38              		.cfi_offset 8, -20
  39              		.cfi_offset 9, -16
  40              		.cfi_offset 10, -12
  41              		.cfi_offset 11, -8
  42              		.cfi_offset 14, -4
  43              		.loc 1 36 0
  44 0004 FFF7FEFF 		bl	MY_TIMER_Start
  45              	.LVL0:
  37:main.c        ****     PACER_TIMER_Start();    
  46              		.loc 1 37 0
  47 0008 FFF7FEFF 		bl	PACER_TIMER_Start
  48              	.LVL1:
  38:main.c        ****     SPI_IMU_Start();
  49              		.loc 1 38 0
  50 000c FFF7FEFF 		bl	SPI_IMU_Start
  51              	.LVL2:
  39:main.c        **** 	SPI_IMU_Init();
  52              		.loc 1 39 0
  53 0010 FFF7FEFF 		bl	SPI_IMU_Init
  54              	.LVL3:
  40:main.c        **** 	SPI_IMU_Enable();
  55              		.loc 1 40 0
  56 0014 FFF7FEFF 		bl	SPI_IMU_Enable
  57              	.LVL4:
  41:main.c        **** 	SPI_IMU_ClearRxBuffer();
  58              		.loc 1 41 0
  59 0018 FFF7FEFF 		bl	SPI_IMU_ClearRxBuffer
  60              	.LVL5:
  42:main.c        **** 	SPI_IMU_ClearTxBuffer();
  61              		.loc 1 42 0
  62 001c FFF7FEFF 		bl	SPI_IMU_ClearTxBuffer
  63              	.LVL6:
  43:main.c        **** 	SPI_IMU_ClearFIFO();							
  64              		.loc 1 43 0
  65 0020 FFF7FEFF 		bl	SPI_IMU_ClearFIFO
  66              	.LVL7:
  44:main.c        ****     CyDelay(10);
  67              		.loc 1 44 0
  68 0024 0A20     		movs	r0, #10
  69 0026 FFF7FEFF 		bl	CyDelay
  70              	.LVL8:
ARM GAS  C:\Users\mgnocco\AppData\Local\Temp\ccP0u4uz.s 			page 3


  45:main.c        ****   
  46:main.c        ****     CyGlobalIntEnable;
  71              		.loc 1 46 0
  72              		.syntax unified
  73              	@ 46 "main.c" 1
  74 002a 62B6     		CPSIE   i
  75              	@ 0 "" 2
  47:main.c        ****     
  48:main.c        ****     uint8 i;
  49:main.c        ****     uint8 who;
  50:main.c        ****     UART_Start();
  51:main.c        ****     Control_Reg_1_Write(2);
  52:main.c        ****     for (k=0;k<2; k++){
  76              		.loc 1 52 0
  77              		.thumb
  78              		.syntax unified
  79 002c 604C     		ldr	r4, .L22
  50:main.c        ****     Control_Reg_1_Write(2);
  80              		.loc 1 50 0
  81 002e FFF7FEFF 		bl	UART_Start
  82              	.LVL9:
  83              		.loc 1 52 0
  84 0032 2546     		mov	r5, r4
  51:main.c        ****     for (k=0;k<2; k++){
  85              		.loc 1 51 0
  86 0034 0220     		movs	r0, #2
  87 0036 FFF7FEFF 		bl	Control_Reg_1_Write
  88              	.LVL10:
  89              		.loc 1 52 0
  90 003a 0023     		movs	r3, #0
  91 003c 2370     		strb	r3, [r4]
  92              	.L2:
  93              		.loc 1 52 0 is_stmt 0 discriminator 1
  94 003e 2078     		ldrb	r0, [r4]	@ zero_extendqisi2
  95 0040 0128     		cmp	r0, #1
  96 0042 2AD8     		bhi	.L18
  53:main.c        ****     Control_Reg_1_Write(k+1);
  97              		.loc 1 53 0 is_stmt 1 discriminator 3
  98 0044 0130     		adds	r0, r0, #1
  99 0046 C0B2     		uxtb	r0, r0
 100 0048 FFF7FEFF 		bl	Control_Reg_1_Write
 101              	.LVL11:
  54:main.c        ****    	WriteControlRegisterSPI(MPU9250_PWR_MGMT_1, 0x10); 
 102              		.loc 1 54 0 discriminator 3
 103 004c 1021     		movs	r1, #16
 104 004e 6B20     		movs	r0, #107
 105 0050 FFF7FEFF 		bl	WriteControlRegisterSPI
 106              	.LVL12:
  55:main.c        **** 	CyDelay(10);	
 107              		.loc 1 55 0 discriminator 3
 108 0054 0A20     		movs	r0, #10
 109 0056 FFF7FEFF 		bl	CyDelay
 110              	.LVL13:
  56:main.c        **** 	WriteControlRegisterSPI(MPU9250_USER_CTRL, 0x20);  //I2C master enable - disable I2C (prima 0x30)
 111              		.loc 1 56 0 discriminator 3
 112 005a 2021     		movs	r1, #32
 113 005c 6A20     		movs	r0, #106
ARM GAS  C:\Users\mgnocco\AppData\Local\Temp\ccP0u4uz.s 			page 4


 114 005e FFF7FEFF 		bl	WriteControlRegisterSPI
 115              	.LVL14:
  57:main.c        **** 	CyDelay(10);
 116              		.loc 1 57 0 discriminator 3
 117 0062 0A20     		movs	r0, #10
 118 0064 FFF7FEFF 		bl	CyDelay
 119              	.LVL15:
  58:main.c        ****     WriteControlRegisterSPI(MPU9250_CONFIG, 0x06); //Gyro & Temp Low Pass Filter 0x01 = 184Hz, 0x02
 120              		.loc 1 58 0 discriminator 3
 121 0068 0621     		movs	r1, #6
 122 006a 1A20     		movs	r0, #26
 123 006c FFF7FEFF 		bl	WriteControlRegisterSPI
 124              	.LVL16:
  59:main.c        ****     CyDelay(10);	
 125              		.loc 1 59 0 discriminator 3
 126 0070 0A20     		movs	r0, #10
 127 0072 FFF7FEFF 		bl	CyDelay
 128              	.LVL17:
  60:main.c        ****     WriteControlRegisterSPI(MPU9250_ACCEL_CONFIG, 0x00); // Acc full scale select 0x00 = 2g 0x08 = 
 129              		.loc 1 60 0 discriminator 3
 130 0076 0021     		movs	r1, #0
 131 0078 1C20     		movs	r0, #28
 132 007a FFF7FEFF 		bl	WriteControlRegisterSPI
 133              	.LVL18:
  61:main.c        ****     CyDelay(10);
 134              		.loc 1 61 0 discriminator 3
 135 007e 0A20     		movs	r0, #10
 136 0080 FFF7FEFF 		bl	CyDelay
 137              	.LVL19:
  62:main.c        ****     WriteControlRegisterSPI(MPU9250_ACCEL_CONFIG2, 0x05);
 138              		.loc 1 62 0 discriminator 3
 139 0084 0521     		movs	r1, #5
 140 0086 1D20     		movs	r0, #29
 141 0088 FFF7FEFF 		bl	WriteControlRegisterSPI
 142              	.LVL20:
  63:main.c        ****     CyDelay(10);
 143              		.loc 1 63 0 discriminator 3
 144 008c 0A20     		movs	r0, #10
 145 008e FFF7FEFF 		bl	CyDelay
 146              	.LVL21:
  52:main.c        ****     Control_Reg_1_Write(k+1);
 147              		.loc 1 52 0 discriminator 3
 148 0092 2B78     		ldrb	r3, [r5]	@ zero_extendqisi2
 149 0094 0133     		adds	r3, r3, #1
 150 0096 2B70     		strb	r3, [r5]
 151 0098 D1E7     		b	.L2
 152              	.L18:
  64:main.c        ****     
  65:main.c        ****    // WriteControlRegisterSPI(LSM6DSRX_FUNC_CFG_ACCESS, 0x00);
  66:main.c        ****  /*   CyDelay(100);
  67:main.c        ****     OneShot_ReadRoutine(EXT_SENS_ADDR,LIS2MDL_WHO_AM_I); //LIS2MDL -->valore WHO_AM_I = 64
  68:main.c        ****     OneShot_WriteRoutine(EXT_SENS_ADDR,LIS2MDL_CFG_REG_A,0x00); //
  69:main.c        ****     CyDelay(1);
  70:main.c        ****     OneShot_WriteRoutine(EXT_SENS_ADDR,LIS2MDL_CFG_REG_A,0x00); //
  71:main.c        ****     OneShot_WriteRoutine(EXT_SENS_ADDR,LIS2MDL_CFG_REG_B,0x02);
  72:main.c        ****     OneShot_WriteRoutine(EXT_SENS_ADDR,LIS2MDL_CFG_REG_C,0x10);
  73:main.c        ****     Continuous_ReadRoutine(EXT_SENS_ADDR,LIS2MDL_OUTX_L_REG,0x06);
ARM GAS  C:\Users\mgnocco\AppData\Local\Temp\ccP0u4uz.s 			page 5


  74:main.c        ****     */
  75:main.c        ****   }
  76:main.c        ****     
  77:main.c        ****    // Control_Reg_1_Write(3);
  78:main.c        ****     j = 0;
 153              		.loc 1 78 0
 154 009a 464F     		ldr	r7, .L22+4
  79:main.c        ****     count =0;
 155              		.loc 1 79 0
 156 009c 464D     		ldr	r5, .L22+8
  78:main.c        ****     count =0;
 157              		.loc 1 78 0
 158 009e 0023     		movs	r3, #0
  80:main.c        ****     
  81:main.c        ****     for(;;)
  82:main.c        ****     {   t0 = (uint16)MY_TIMER_ReadCounter();
  83:main.c        **** for (k=0;k<1; k++){
  84:main.c        ****    // Control_Reg_1_Write(k+1);
  85:main.c        **** //      ------------------------------------------------------------------------READ MAG
  86:main.c        ****      /*   do 
  87:main.c        ****         {
  88:main.c        ****             XLDA = ReadControlRegisterSPI(LSM6DSRX_STATUS_REG);          
  89:main.c        ****         }
  90:main.c        ****         while ((XLDA & 0b00000001) == 0);   
  91:main.c        ****     
  92:main.c        ****         do 
  93:main.c        ****         {
  94:main.c        ****             SENS_HUB_ENDOP = ReadControlRegisterSPI(LSM6DSRX_STATUS_MASTER_MAINPAGE);   
  95:main.c        ****         }
  96:main.c        ****         while ((SENS_HUB_ENDOP & 0b00000001) == 0);
  97:main.c        ****         
  98:main.c        ****         
  99:main.c        **** 
 100:main.c        ****         WriteControlRegisterSPI(LSM6DSRX_FUNC_CFG_ACCESS, 0x40);   
 101:main.c        ****         CyDelayUs(100);  
 102:main.c        ****         ReadControlRegisterSPI(LSM6DSRX_WHO_AM_I); 
 103:main.c        ****            
 104:main.c        ****         for (i = 0; i < 6; i++){
 105:main.c        ****             Mag[k][j][i]= ReadControlRegisterSPI(LSM6DSRX_SENSOR_HUB_1 + i);  
 106:main.c        ****         }
 107:main.c        ****        
 108:main.c        ****         WriteControlRegisterSPI(LSM6DSRX_FUNC_CFG_ACCESS, 0x00);   
 109:main.c        ****         CyDelayUs(100);
 110:main.c        ****          
 111:main.c        ****       */
 112:main.c        ****           
 113:main.c        ****         for (i = 0; i < 6; i++){
 114:main.c        ****             Accel[k][j][i] = ReadControlRegisterSPI(MPU9250_ACCEL_ZOUT_L - i);
 159              		.loc 1 114 0
 160 00a0 DFF80C81 		ldr	r8, .L22
  78:main.c        ****     count =0;
 161              		.loc 1 78 0
 162 00a4 3B70     		strb	r3, [r7]
  79:main.c        ****     
 163              		.loc 1 79 0
 164 00a6 2B70     		strb	r3, [r5]
 165              	.L13:
ARM GAS  C:\Users\mgnocco\AppData\Local\Temp\ccP0u4uz.s 			page 6


  82:main.c        **** for (k=0;k<1; k++){
 166              		.loc 1 82 0
 167 00a8 FFF7FEFF 		bl	MY_TIMER_ReadCounter
 168              	.LVL22:
 169 00ac DFF818A1 		ldr	r10, .L22+24
  83:main.c        ****    // Control_Reg_1_Write(k+1);
 170              		.loc 1 83 0
 171 00b0 0023     		movs	r3, #0
  82:main.c        **** for (k=0;k<1; k++){
 172              		.loc 1 82 0
 173 00b2 AAF80000 		strh	r0, [r10]	@ movhi
  83:main.c        ****    // Control_Reg_1_Write(k+1);
 174              		.loc 1 83 0
 175 00b6 2370     		strb	r3, [r4]
 176              	.L4:
  83:main.c        ****    // Control_Reg_1_Write(k+1);
 177              		.loc 1 83 0 is_stmt 0 discriminator 1
 178 00b8 2678     		ldrb	r6, [r4]	@ zero_extendqisi2
 179 00ba E6B9     		cbnz	r6, .L19
 180              		.loc 1 114 0 is_stmt 1 discriminator 3
 181 00bc 4FF0060B 		mov	fp, #6
 182              	.L5:
 183              	.LVL23:
 184 00c0 2178     		ldrb	r1, [r4]	@ zero_extendqisi2
 185 00c2 C6F14000 		rsb	r0, r6, #64
 186 00c6 C0B2     		uxtb	r0, r0
 187 00c8 0191     		str	r1, [sp, #4]
 188 00ca 97F80090 		ldrb	r9, [r7]	@ zero_extendqisi2
 189 00ce FFF7FEFF 		bl	ReadControlRegisterSPI
 190              	.LVL24:
 191 00d2 0199     		ldr	r1, [sp, #4]
 192 00d4 3C22     		movs	r2, #60
 193 00d6 4A43     		muls	r2, r1, r2
 194 00d8 0BFB0929 		mla	r9, fp, r9, r2
 195 00dc 374B     		ldr	r3, .L22+12
 196 00de 9944     		add	r9, r9, r3
 197 00e0 09F80600 		strb	r0, [r9, r6]
 198              	.LVL25:
 199 00e4 0136     		adds	r6, r6, #1
 200              	.LVL26:
 113:main.c        ****             Accel[k][j][i] = ReadControlRegisterSPI(MPU9250_ACCEL_ZOUT_L - i);
 201              		.loc 1 113 0 discriminator 3
 202 00e6 062E     		cmp	r6, #6
 203 00e8 EAD1     		bne	.L5
  83:main.c        ****    // Control_Reg_1_Write(k+1);
 204              		.loc 1 83 0 discriminator 2
 205 00ea 98F80030 		ldrb	r3, [r8]	@ zero_extendqisi2
 206 00ee 0133     		adds	r3, r3, #1
 207 00f0 88F80030 		strb	r3, [r8]
 208 00f4 E0E7     		b	.L4
 209              	.L19:
 115:main.c        ****         }
 116:main.c        **** /*
 117:main.c        ****         for (i = 0; i < 6; i++){
 118:main.c        ****             Gyro[k][j][i] = ReadControlRegisterSPI(LSM6DSRX_OUTX_L_G + i);
 119:main.c        ****         }*/
 120:main.c        **** }
ARM GAS  C:\Users\mgnocco\AppData\Local\Temp\ccP0u4uz.s 			page 7


 121:main.c        ****       // Control_Reg_1_Write(3);
 122:main.c        **** 
 123:main.c        **** //}        
 124:main.c        **** 
 125:main.c        ****      
 126:main.c        **** //      ---------------------------------------------------------------------READ AXELS
 127:main.c        **** 
 128:main.c        ****         //CyDelay(1);
 129:main.c        ****         t1 = (uint16) MY_TIMER_ReadCounter();
 210              		.loc 1 129 0
 211 00f6 FFF7FEFF 		bl	MY_TIMER_ReadCounter
 212              	.LVL27:
 213 00fa 314B     		ldr	r3, .L22+16
 214 00fc 80B2     		uxth	r0, r0
 130:main.c        ****         tempo[j] = (uint16)(t0-t1);
 215              		.loc 1 130 0
 216 00fe BAF80020 		ldrh	r2, [r10]
 129:main.c        ****         tempo[j] = (uint16)(t0-t1);
 217              		.loc 1 129 0
 218 0102 1880     		strh	r0, [r3]	@ movhi
 219              		.loc 1 130 0
 220 0104 2F49     		ldr	r1, .L22+20
 221 0106 3B78     		ldrb	r3, [r7]	@ zero_extendqisi2
 222 0108 101A     		subs	r0, r2, r0
 223 010a 21F81300 		strh	r0, [r1, r3, lsl #1]	@ movhi
 131:main.c        ****     
 132:main.c        ****         j = j + 1;
 224              		.loc 1 132 0
 225 010e 0133     		adds	r3, r3, #1
 226 0110 DBB2     		uxtb	r3, r3
 133:main.c        ****         
 134:main.c        ****         if (j > 9) {
 227              		.loc 1 134 0
 228 0112 092B     		cmp	r3, #9
 132:main.c        ****         
 229              		.loc 1 132 0
 230 0114 3B70     		strb	r3, [r7]
 231 0116 8946     		mov	r9, r1
 232              		.loc 1 134 0
 233 0118 43D9     		bls	.L7
 135:main.c        ****             
 136:main.c        ****             for(count = 0; count < 10; count++){ 
 234              		.loc 1 136 0
 235 011a 0023     		movs	r3, #0
 236              	.L16:
 237              		.loc 1 136 0 is_stmt 0 discriminator 2
 238 011c 2B70     		strb	r3, [r5]
 239 011e 2B78     		ldrb	r3, [r5]	@ zero_extendqisi2
 240 0120 092B     		cmp	r3, #9
 241 0122 4FF00003 		mov	r3, #0
 242 0126 3BD8     		bhi	.L20
 137:main.c        ****                 for (k=0;k<1;k++){
 138:main.c        ****                 UART_PutChar(count);
 139:main.c        ****                 UART_PutChar(0);
 140:main.c        ****             
 141:main.c        ****                 var = (uint8)(tempo[count] & 0xFF);
 243              		.loc 1 141 0 is_stmt 1
ARM GAS  C:\Users\mgnocco\AppData\Local\Temp\ccP0u4uz.s 			page 8


 244 0128 DFF8A0A0 		ldr	r10, .L22+28
 137:main.c        ****                 for (k=0;k<1;k++){
 245              		.loc 1 137 0
 246 012c 2370     		strb	r3, [r4]
 247              	.L9:
 137:main.c        ****                 for (k=0;k<1;k++){
 248              		.loc 1 137 0 is_stmt 0 discriminator 1
 249 012e 2678     		ldrb	r6, [r4]	@ zero_extendqisi2
 250 0130 9EBB     		cbnz	r6, .L21
 138:main.c        ****                 UART_PutChar(0);
 251              		.loc 1 138 0 is_stmt 1
 252 0132 2878     		ldrb	r0, [r5]	@ zero_extendqisi2
 253 0134 FFF7FEFF 		bl	UART_PutChar
 254              	.LVL28:
 139:main.c        ****             
 255              		.loc 1 139 0
 256 0138 3046     		mov	r0, r6
 257 013a FFF7FEFF 		bl	UART_PutChar
 258              	.LVL29:
 259              		.loc 1 141 0
 260 013e 2B78     		ldrb	r3, [r5]	@ zero_extendqisi2
 142:main.c        ****                 UART_PutChar(var);
 143:main.c        ****                 var = (uint8) (tempo[count] >> 8);
 144:main.c        ****                 UART_PutChar(var);
 145:main.c        ****                 
 146:main.c        ****                 
 147:main.c        ****                 for (i = 0; i < 6; i++){
 148:main.c        ****                     UART_PutChar( Accel[k][count][i]);
 261              		.loc 1 148 0
 262 0140 4FF0060B 		mov	fp, #6
 141:main.c        ****                 UART_PutChar(var);
 263              		.loc 1 141 0
 264 0144 19F81300 		ldrb	r0, [r9, r3, lsl #1]	@ zero_extendqisi2
 265 0148 8AF80000 		strb	r0, [r10]
 142:main.c        ****                 UART_PutChar(var);
 266              		.loc 1 142 0
 267 014c FFF7FEFF 		bl	UART_PutChar
 268              	.LVL30:
 143:main.c        ****                 UART_PutChar(var);
 269              		.loc 1 143 0
 270 0150 2B78     		ldrb	r3, [r5]	@ zero_extendqisi2
 271 0152 39F81300 		ldrh	r0, [r9, r3, lsl #1]
 272 0156 000A     		lsrs	r0, r0, #8
 273 0158 8AF80000 		strb	r0, [r10]
 144:main.c        ****                 
 274              		.loc 1 144 0
 275 015c FFF7FEFF 		bl	UART_PutChar
 276              	.LVL31:
 277              	.L10:
 278              		.loc 1 148 0 discriminator 3
 279 0160 2078     		ldrb	r0, [r4]	@ zero_extendqisi2
 280 0162 3C23     		movs	r3, #60
 281 0164 4343     		muls	r3, r0, r3
 282 0166 2978     		ldrb	r1, [r5]	@ zero_extendqisi2
 283 0168 144A     		ldr	r2, .L22+12
 284 016a 0BFB0133 		mla	r3, fp, r1, r3
 285 016e 1344     		add	r3, r3, r2
ARM GAS  C:\Users\mgnocco\AppData\Local\Temp\ccP0u4uz.s 			page 9


 286 0170 985D     		ldrb	r0, [r3, r6]	@ zero_extendqisi2
 287 0172 0136     		adds	r6, r6, #1
 288              	.LVL32:
 289 0174 FFF7FEFF 		bl	UART_PutChar
 290              	.LVL33:
 147:main.c        ****                     UART_PutChar( Accel[k][count][i]);
 291              		.loc 1 147 0 discriminator 3
 292 0178 062E     		cmp	r6, #6
 293 017a F1D1     		bne	.L10
 149:main.c        ****                 }
 150:main.c        ****               /*  
 151:main.c        ****                 for (i = 0 ; i < 6; i++){
 152:main.c        ****                     UART_PutChar( Gyro[k][count][i]);
 153:main.c        ****                 }
 154:main.c        ****                                     
 155:main.c        ****                 for (i = 0; i < 6; i++){
 156:main.c        ****                     UART_PutChar( Mag[k][count][i]);
 157:main.c        ****                 }
 158:main.c        ****                 */
 159:main.c        ****                 UART_PutChar('c');
 294              		.loc 1 159 0 discriminator 2
 295 017c 6320     		movs	r0, #99
 296 017e FFF7FEFF 		bl	UART_PutChar
 297              	.LVL34:
 160:main.c        ****                 UART_PutChar('i');
 298              		.loc 1 160 0 discriminator 2
 299 0182 6920     		movs	r0, #105
 300 0184 FFF7FEFF 		bl	UART_PutChar
 301              	.LVL35:
 161:main.c        ****                 UART_PutChar('a');
 302              		.loc 1 161 0 discriminator 2
 303 0188 6120     		movs	r0, #97
 304 018a FFF7FEFF 		bl	UART_PutChar
 305              	.LVL36:
 137:main.c        ****                 UART_PutChar(count);
 306              		.loc 1 137 0 discriminator 2
 307 018e 98F80030 		ldrb	r3, [r8]	@ zero_extendqisi2
 308 0192 0133     		adds	r3, r3, #1
 309 0194 88F80030 		strb	r3, [r8]
 310 0198 C9E7     		b	.L9
 311              	.L21:
 136:main.c        ****                 for (k=0;k<1;k++){
 312              		.loc 1 136 0 discriminator 2
 313 019a 2B78     		ldrb	r3, [r5]	@ zero_extendqisi2
 314 019c 0133     		adds	r3, r3, #1
 315 019e BDE7     		b	.L16
 316              	.L20:
 162:main.c        **** }
 163:main.c        ****             }
 164:main.c        ****             
 165:main.c        ****             j = 0;
 317              		.loc 1 165 0
 318 01a0 3B70     		strb	r3, [r7]
 319              	.L7:
 166:main.c        ****             
 167:main.c        ****         } 
 168:main.c        ****         
ARM GAS  C:\Users\mgnocco\AppData\Local\Temp\ccP0u4uz.s 			page 10


 169:main.c        ****         MY_TIMER_REG_Write(1);
 320              		.loc 1 169 0
 321 01a2 0120     		movs	r0, #1
 322 01a4 FFF7FEFF 		bl	MY_TIMER_REG_Write
 323              	.LVL37:
 170:main.c        ****         
 171:main.c        ****         MY_TIMER_REG_Write(0);
 324              		.loc 1 171 0
 325 01a8 0020     		movs	r0, #0
 326 01aa FFF7FEFF 		bl	MY_TIMER_REG_Write
 327              	.LVL38:
 172:main.c        ****         
 173:main.c        ****         
 174:main.c        ****     }
 328              		.loc 1 174 0
 329 01ae 7BE7     		b	.L13
 330              	.L23:
 331              		.align	2
 332              	.L22:
 333 01b0 00000000 		.word	k
 334 01b4 00000000 		.word	j
 335 01b8 00000000 		.word	count
 336 01bc 00000000 		.word	Accel
 337 01c0 00000000 		.word	t1
 338 01c4 00000000 		.word	tempo
 339 01c8 00000000 		.word	t0
 340 01cc 00000000 		.word	var
 341              		.cfi_endproc
 342              	.LFE64:
 343              		.size	main, .-main
 344              		.comm	var,1,1
 345              		.comm	k,1,1
 346              		.comm	count,1,1
 347              		.comm	j,1,1
 348              		.comm	tempo,20,2
 349              		.comm	t1,2,2
 350              		.comm	t0,2,2
 351              		.comm	SENS_HUB_ENDOP,1,1
 352              		.comm	XLDA,1,1
 353              		.comm	GDA,1,1
 354              		.comm	Temp,2,1
 355              		.comm	Gyro,120,1
 356              		.comm	Accel,120,1
 357              		.comm	Mag,120,1
 358              		.comm	g_imuNew,16,2
 359              		.comm	g_imu,16,2
 360              		.comm	IMU_ack,4,4
 361              		.text
 362              	.Letext0:
 363              		.file 2 "c:\\program files (x86)\\cypress\\psoc creator\\4.4\\psoc creator\\import\\gnu\\arm\\5.4.
 364              		.file 3 "c:\\program files (x86)\\cypress\\psoc creator\\4.4\\psoc creator\\import\\gnu\\arm\\5.4.
 365              		.file 4 "Generated_Source\\PSoC5/cytypes.h"
 366              		.file 5 "globals.h"
 367              		.file 6 "Generated_Source\\PSoC5/core_cm3.h"
 368              		.file 7 "Generated_Source\\PSoC5/MY_TIMER.h"
 369              		.file 8 "Generated_Source\\PSoC5/PACER_TIMER.h"
 370              		.file 9 "Generated_Source\\PSoC5/SPI_IMU.h"
ARM GAS  C:\Users\mgnocco\AppData\Local\Temp\ccP0u4uz.s 			page 11


 371              		.file 10 "Generated_Source\\PSoC5/CyLib.h"
 372              		.file 11 "Generated_Source\\PSoC5/UART.h"
 373              		.file 12 "Generated_Source\\PSoC5/Control_Reg_1.h"
 374              		.file 13 "header01.h"
 375              		.file 14 "Generated_Source\\PSoC5/MY_TIMER_REG.h"