ARM GAS  C:\Users\mgnocco\AppData\Local\Temp\ccfXtYRe.s 			page 1


   1              		.syntax unified
   2              		.cpu cortex-m3
   3              		.fpu softvfp
   4              		.eabi_attribute 20, 1
   5              		.eabi_attribute 21, 1
   6              		.eabi_attribute 23, 3
   7              		.eabi_attribute 24, 1
   8              		.eabi_attribute 25, 1
   9              		.eabi_attribute 26, 1
  10              		.eabi_attribute 30, 4
  11              		.eabi_attribute 34, 1
  12              		.eabi_attribute 18, 4
  13              		.thumb
  14              		.syntax unified
  15              		.file	"main.c"
  16              		.text
  17              	.Ltext0:
  18              		.cfi_sections	.debug_frame
  19              		.section	.text.startup.main,"ax",%progbits
  20              		.align	1
  21              		.global	main
  22              		.thumb
  23              		.thumb_func
  24              		.type	main, %function
  25              	main:
  26              	.LFB64:
  27              		.file 1 "main.c"
   1:main.c        **** /* ========================================
   2:main.c        ****  *
   3:main.c        ****  * Copyright YOUR COMPANY, THE YEAR
   4:main.c        ****  * All Rights Reserved
   5:main.c        ****  * UNPUBLISHED, LICENSED SOFTWARE.
   6:main.c        ****  *
   7:main.c        ****  * CONFIDENTIAL AND PROPRIETARY INFORMATION
   8:main.c        ****  * WHICH IS THE PROPERTY OF your company.
   9:main.c        ****  *
  10:main.c        ****  * ========================================
  11:main.c        **** */
  12:main.c        **** 
  13:main.c        **** #include "header01.h"
  14:main.c        **** #include "globals.h"
  15:main.c        **** #include <project.h>
  16:main.c        **** int IMU_ack;
  17:main.c        **** 
  18:main.c        **** //uint8 SensorHub[6] = {LSM6DSRX_SENSOR_HUB_1, LSM6DSRX_SENSOR_HUB_2, LSM6DSRX_SENSOR_HUB_3, LSM6DS
  19:main.c        **** struct st_imu_data g_imu, g_imuNew;
  20:main.c        **** uint8 Mag[2][10][6];
  21:main.c        **** uint8 Accel[2][10][6];
  22:main.c        **** uint8 Gyro[2][10][6];
  23:main.c        **** uint8 Temp[2];
  24:main.c        **** uint8 GDA;
  25:main.c        **** uint8 XLDA;
  26:main.c        **** uint8 SENS_HUB_ENDOP;
  27:main.c        **** uint16 t0;
  28:main.c        **** uint16 t1;
  29:main.c        **** uint16 tempo[10];
  30:main.c        **** uint8 j;
ARM GAS  C:\Users\mgnocco\AppData\Local\Temp\ccfXtYRe.s 			page 2


  31:main.c        **** uint8 count;
  32:main.c        **** uint8 k;
  33:main.c        **** uint8 var;
  34:main.c        **** 
  35:main.c        **** int main()
  36:main.c        **** {   MY_TIMER_Start();                 
  28              		.loc 1 36 0
  29              		.cfi_startproc
  30              		@ args = 0, pretend = 0, frame = 8
  31              		@ frame_needed = 0, uses_anonymous_args = 0
  32 0000 2DE9F74F 		push	{r0, r1, r2, r4, r5, r6, r7, r8, r9, r10, fp, lr}
  33              		.cfi_def_cfa_offset 48
  34              		.cfi_offset 4, -36
  35              		.cfi_offset 5, -32
  36              		.cfi_offset 6, -28
  37              		.cfi_offset 7, -24
  38              		.cfi_offset 8, -20
  39              		.cfi_offset 9, -16
  40              		.cfi_offset 10, -12
  41              		.cfi_offset 11, -8
  42              		.cfi_offset 14, -4
  43              		.loc 1 36 0
  44 0004 FFF7FEFF 		bl	MY_TIMER_Start
  45              	.LVL0:
  37:main.c        ****     PACER_TIMER_Start();    
  46              		.loc 1 37 0
  47 0008 FFF7FEFF 		bl	PACER_TIMER_Start
  48              	.LVL1:
  38:main.c        ****     SPI_IMU_Start();
  49              		.loc 1 38 0
  50 000c FFF7FEFF 		bl	SPI_IMU_Start
  51              	.LVL2:
  39:main.c        **** 	SPI_IMU_Init();
  52              		.loc 1 39 0
  53 0010 FFF7FEFF 		bl	SPI_IMU_Init
  54              	.LVL3:
  40:main.c        **** 	SPI_IMU_Enable();
  55              		.loc 1 40 0
  56 0014 FFF7FEFF 		bl	SPI_IMU_Enable
  57              	.LVL4:
  41:main.c        **** 	SPI_IMU_ClearRxBuffer();
  58              		.loc 1 41 0
  59 0018 FFF7FEFF 		bl	SPI_IMU_ClearRxBuffer
  60              	.LVL5:
  42:main.c        **** 	SPI_IMU_ClearTxBuffer();
  61              		.loc 1 42 0
  62 001c FFF7FEFF 		bl	SPI_IMU_ClearTxBuffer
  63              	.LVL6:
  43:main.c        **** 	SPI_IMU_ClearFIFO();							
  64              		.loc 1 43 0
  65 0020 FFF7FEFF 		bl	SPI_IMU_ClearFIFO
  66              	.LVL7:
  44:main.c        ****     CyDelay(10);
  67              		.loc 1 44 0
  68 0024 0A20     		movs	r0, #10
  69 0026 FFF7FEFF 		bl	CyDelay
  70              	.LVL8:
ARM GAS  C:\Users\mgnocco\AppData\Local\Temp\ccfXtYRe.s 			page 3


  45:main.c        ****   
  46:main.c        ****     CyGlobalIntEnable;
  71              		.loc 1 46 0
  72              		.syntax unified
  73              	@ 46 "main.c" 1
  74 002a 62B6     		CPSIE   i
  75              	@ 0 "" 2
  47:main.c        ****     
  48:main.c        ****     uint8 i;
  49:main.c        ****     uint8 who;
  50:main.c        ****     UART_Start();
  51:main.c        ****     Control_Reg_1_Write(2);
  52:main.c        ****     for (k=0;k<2; k++){
  76              		.loc 1 52 0
  77              		.thumb
  78              		.syntax unified
  79 002c 5F4C     		ldr	r4, .L22
  50:main.c        ****     Control_Reg_1_Write(2);
  80              		.loc 1 50 0
  81 002e FFF7FEFF 		bl	UART_Start
  82              	.LVL9:
  83              		.loc 1 52 0
  84 0032 2546     		mov	r5, r4
  51:main.c        ****     for (k=0;k<2; k++){
  85              		.loc 1 51 0
  86 0034 0220     		movs	r0, #2
  87 0036 FFF7FEFF 		bl	Control_Reg_1_Write
  88              	.LVL10:
  89              		.loc 1 52 0
  90 003a 0023     		movs	r3, #0
  91 003c 2370     		strb	r3, [r4]
  92              	.L2:
  93              		.loc 1 52 0 is_stmt 0 discriminator 1
  94 003e 2078     		ldrb	r0, [r4]	@ zero_extendqisi2
  95 0040 0128     		cmp	r0, #1
  96 0042 16D8     		bhi	.L18
  53:main.c        ****     Control_Reg_1_Write(k+1);
  97              		.loc 1 53 0 is_stmt 1 discriminator 3
  98 0044 0130     		adds	r0, r0, #1
  99 0046 C0B2     		uxtb	r0, r0
 100 0048 FFF7FEFF 		bl	Control_Reg_1_Write
 101              	.LVL11:
  54:main.c        ****     WriteControlRegisterSPI(LSM6DSRX_CTRL1_XL,0xA0); //104 Hz (normal mode)
 102              		.loc 1 54 0 discriminator 3
 103 004c A021     		movs	r1, #160
 104 004e 1020     		movs	r0, #16
 105 0050 FFF7FEFF 		bl	WriteControlRegisterSPI
 106              	.LVL12:
  55:main.c        ****     WriteControlRegisterSPI(LSM6DSRX_CTRL3_C,0x40); //104 Hz (normal mode)
 107              		.loc 1 55 0 discriminator 3
 108 0054 4021     		movs	r1, #64
 109 0056 1220     		movs	r0, #18
 110 0058 FFF7FEFF 		bl	WriteControlRegisterSPI
 111              	.LVL13:
  56:main.c        ****     CyDelay(1);
 112              		.loc 1 56 0 discriminator 3
 113 005c 0120     		movs	r0, #1
ARM GAS  C:\Users\mgnocco\AppData\Local\Temp\ccfXtYRe.s 			page 4


 114 005e FFF7FEFF 		bl	CyDelay
 115              	.LVL14:
  57:main.c        ****     WriteControlRegisterSPI(LSM6DSRX_CTRL2_G,0xA0); //104 Hz (normal mode)   
 116              		.loc 1 57 0 discriminator 3
 117 0062 A021     		movs	r1, #160
 118 0064 1120     		movs	r0, #17
 119 0066 FFF7FEFF 		bl	WriteControlRegisterSPI
 120              	.LVL15:
  52:main.c        ****     Control_Reg_1_Write(k+1);
 121              		.loc 1 52 0 discriminator 3
 122 006a 2B78     		ldrb	r3, [r5]	@ zero_extendqisi2
 123 006c 0133     		adds	r3, r3, #1
 124 006e 2B70     		strb	r3, [r5]
 125 0070 E5E7     		b	.L2
 126              	.L18:
  58:main.c        ****     
  59:main.c        ****    // WriteControlRegisterSPI(LSM6DSRX_FUNC_CFG_ACCESS, 0x00);
  60:main.c        ****  /*   CyDelay(100);
  61:main.c        ****     OneShot_ReadRoutine(EXT_SENS_ADDR,LIS2MDL_WHO_AM_I); //LIS2MDL -->valore WHO_AM_I = 64
  62:main.c        ****     OneShot_WriteRoutine(EXT_SENS_ADDR,LIS2MDL_CFG_REG_A,0x00); //
  63:main.c        ****     CyDelay(1);
  64:main.c        ****     OneShot_WriteRoutine(EXT_SENS_ADDR,LIS2MDL_CFG_REG_A,0x00); //
  65:main.c        ****     OneShot_WriteRoutine(EXT_SENS_ADDR,LIS2MDL_CFG_REG_B,0x02);
  66:main.c        ****     OneShot_WriteRoutine(EXT_SENS_ADDR,LIS2MDL_CFG_REG_C,0x10);
  67:main.c        ****     Continuous_ReadRoutine(EXT_SENS_ADDR,LIS2MDL_OUTX_L_REG,0x06);
  68:main.c        ****     */
  69:main.c        ****   }
  70:main.c        ****     
  71:main.c        ****     Control_Reg_1_Write(0);
 127              		.loc 1 71 0
 128 0072 0020     		movs	r0, #0
  72:main.c        ****     j = 0;
 129              		.loc 1 72 0
 130 0074 4E4E     		ldr	r6, .L22+4
  73:main.c        ****     count =0;
 131              		.loc 1 73 0
 132 0076 4F4D     		ldr	r5, .L22+8
  71:main.c        ****     j = 0;
 133              		.loc 1 71 0
 134 0078 FFF7FEFF 		bl	Control_Reg_1_Write
 135              	.LVL16:
  74:main.c        ****     
  75:main.c        ****     for(;;)
  76:main.c        ****     {   t0 = (uint16)MY_TIMER_ReadCounter();
  77:main.c        **** for (k=0;k<2; k++){
  78:main.c        ****     Control_Reg_1_Write(k+1);
  79:main.c        **** //      ------------------------------------------------------------------------READ MAG
  80:main.c        ****      /*   do 
  81:main.c        ****         {
  82:main.c        ****             XLDA = ReadControlRegisterSPI(LSM6DSRX_STATUS_REG);          
  83:main.c        ****         }
  84:main.c        ****         while ((XLDA & 0b00000001) == 0);   
  85:main.c        ****     
  86:main.c        ****         do 
  87:main.c        ****         {
  88:main.c        ****             SENS_HUB_ENDOP = ReadControlRegisterSPI(LSM6DSRX_STATUS_MASTER_MAINPAGE);   
  89:main.c        ****         }
ARM GAS  C:\Users\mgnocco\AppData\Local\Temp\ccfXtYRe.s 			page 5


  90:main.c        ****         while ((SENS_HUB_ENDOP & 0b00000001) == 0);
  91:main.c        ****         
  92:main.c        ****         
  93:main.c        **** 
  94:main.c        ****         WriteControlRegisterSPI(LSM6DSRX_FUNC_CFG_ACCESS, 0x40);   
  95:main.c        ****         CyDelayUs(100);  
  96:main.c        ****         ReadControlRegisterSPI(LSM6DSRX_WHO_AM_I); 
  97:main.c        ****            
  98:main.c        ****         for (i = 0; i < 6; i++){
  99:main.c        ****             Mag[k][j][i]= ReadControlRegisterSPI(LSM6DSRX_SENSOR_HUB_1 + i);  
 100:main.c        ****         }
 101:main.c        ****        
 102:main.c        ****         WriteControlRegisterSPI(LSM6DSRX_FUNC_CFG_ACCESS, 0x00);   
 103:main.c        ****         CyDelayUs(100);
 104:main.c        ****          
 105:main.c        ****       */
 106:main.c        ****           
 107:main.c        ****         for (i = 0; i < 6; i++){
 108:main.c        ****             Accel[k][j][i] = ReadControlRegisterSPI(LSM6DSRX_OUTX_L_A + i);
 136              		.loc 1 108 0
 137 007c DFF82C81 		ldr	r8, .L22
  72:main.c        ****     count =0;
 138              		.loc 1 72 0
 139 0080 0023     		movs	r3, #0
 140 0082 3370     		strb	r3, [r6]
  73:main.c        ****     
 141              		.loc 1 73 0
 142 0084 2B70     		strb	r3, [r5]
 143              	.L13:
  76:main.c        **** for (k=0;k<2; k++){
 144              		.loc 1 76 0
 145 0086 FFF7FEFF 		bl	MY_TIMER_ReadCounter
 146              	.LVL17:
 147 008a DFF838A1 		ldr	r10, .L22+24
  77:main.c        ****     Control_Reg_1_Write(k+1);
 148              		.loc 1 77 0
 149 008e 0023     		movs	r3, #0
  76:main.c        **** for (k=0;k<2; k++){
 150              		.loc 1 76 0
 151 0090 AAF80000 		strh	r0, [r10]	@ movhi
  77:main.c        ****     Control_Reg_1_Write(k+1);
 152              		.loc 1 77 0
 153 0094 2370     		strb	r3, [r4]
 154              	.L4:
  77:main.c        ****     Control_Reg_1_Write(k+1);
 155              		.loc 1 77 0 is_stmt 0 discriminator 1
 156 0096 2078     		ldrb	r0, [r4]	@ zero_extendqisi2
 157 0098 0128     		cmp	r0, #1
 158 009a 24D8     		bhi	.L19
  78:main.c        **** //      ------------------------------------------------------------------------READ MAG
 159              		.loc 1 78 0 is_stmt 1
 160 009c 0130     		adds	r0, r0, #1
 161 009e C0B2     		uxtb	r0, r0
 162 00a0 FFF7FEFF 		bl	Control_Reg_1_Write
 163              	.LVL18:
 164 00a4 0027     		movs	r7, #0
 165              		.loc 1 108 0
ARM GAS  C:\Users\mgnocco\AppData\Local\Temp\ccfXtYRe.s 			page 6


 166 00a6 4FF0060B 		mov	fp, #6
 167              	.LVL19:
 168              	.L5:
 169              		.loc 1 108 0 is_stmt 0 discriminator 3
 170 00aa 2178     		ldrb	r1, [r4]	@ zero_extendqisi2
 171 00ac 07F12800 		add	r0, r7, #40
 172 00b0 C0B2     		uxtb	r0, r0
 173 00b2 0191     		str	r1, [sp, #4]
 174 00b4 96F80090 		ldrb	r9, [r6]	@ zero_extendqisi2
 175 00b8 FFF7FEFF 		bl	ReadControlRegisterSPI
 176              	.LVL20:
 177 00bc 0199     		ldr	r1, [sp, #4]
 178 00be 3C22     		movs	r2, #60
 179 00c0 4A43     		muls	r2, r1, r2
 180 00c2 0BFB0929 		mla	r9, fp, r9, r2
 181 00c6 3C4B     		ldr	r3, .L22+12
 182 00c8 9944     		add	r9, r9, r3
 183 00ca 09F80700 		strb	r0, [r9, r7]
 184              	.LVL21:
 185 00ce 0137     		adds	r7, r7, #1
 186              	.LVL22:
 107:main.c        ****             Accel[k][j][i] = ReadControlRegisterSPI(LSM6DSRX_OUTX_L_A + i);
 187              		.loc 1 107 0 is_stmt 1 discriminator 3
 188 00d0 062F     		cmp	r7, #6
 189 00d2 EAD1     		bne	.L5
 109:main.c        ****         }
 110:main.c        **** /*
 111:main.c        ****         for (i = 0; i < 6; i++){
 112:main.c        ****             Gyro[k][j][i] = ReadControlRegisterSPI(LSM6DSRX_OUTX_L_G + i);
 113:main.c        ****         }*/
 114:main.c        ****         Control_Reg_1_Write(0);
 190              		.loc 1 114 0 discriminator 2
 191 00d4 0020     		movs	r0, #0
 192 00d6 FFF7FEFF 		bl	Control_Reg_1_Write
 193              	.LVL23:
  77:main.c        ****     Control_Reg_1_Write(k+1);
 194              		.loc 1 77 0 discriminator 2
 195 00da 98F80030 		ldrb	r3, [r8]	@ zero_extendqisi2
 196 00de 0133     		adds	r3, r3, #1
 197 00e0 88F80030 		strb	r3, [r8]
 198 00e4 D7E7     		b	.L4
 199              	.L19:
 115:main.c        **** }
 116:main.c        ****        
 117:main.c        **** 
 118:main.c        **** //}        
 119:main.c        **** 
 120:main.c        ****      
 121:main.c        **** //      ---------------------------------------------------------------------READ AXELS
 122:main.c        **** 
 123:main.c        ****         //CyDelay(1);
 124:main.c        ****         t1 = (uint16) MY_TIMER_ReadCounter();
 200              		.loc 1 124 0
 201 00e6 FFF7FEFF 		bl	MY_TIMER_ReadCounter
 202              	.LVL24:
 203 00ea 344B     		ldr	r3, .L22+16
 204 00ec 80B2     		uxth	r0, r0
ARM GAS  C:\Users\mgnocco\AppData\Local\Temp\ccfXtYRe.s 			page 7


 125:main.c        ****         tempo[j] = (uint16)(t0-t1);
 205              		.loc 1 125 0
 206 00ee BAF80020 		ldrh	r2, [r10]
 124:main.c        ****         tempo[j] = (uint16)(t0-t1);
 207              		.loc 1 124 0
 208 00f2 1880     		strh	r0, [r3]	@ movhi
 209              		.loc 1 125 0
 210 00f4 324F     		ldr	r7, .L22+20
 211 00f6 3378     		ldrb	r3, [r6]	@ zero_extendqisi2
 212 00f8 101A     		subs	r0, r2, r0
 213 00fa 27F81300 		strh	r0, [r7, r3, lsl #1]	@ movhi
 126:main.c        ****     
 127:main.c        ****         j = j + 1;
 214              		.loc 1 127 0
 215 00fe 0133     		adds	r3, r3, #1
 216 0100 DBB2     		uxtb	r3, r3
 128:main.c        ****         
 129:main.c        ****         if (j > 9) {
 217              		.loc 1 129 0
 218 0102 092B     		cmp	r3, #9
 127:main.c        ****         
 219              		.loc 1 127 0
 220 0104 3370     		strb	r3, [r6]
 221              		.loc 1 129 0
 222 0106 49D9     		bls	.L7
 130:main.c        ****             
 131:main.c        ****             for(count = 0; count < 10; count++){ 
 223              		.loc 1 131 0
 224 0108 0023     		movs	r3, #0
 225              	.L16:
 226              		.loc 1 131 0 is_stmt 0 discriminator 2
 227 010a 2B70     		strb	r3, [r5]
 228 010c 2B78     		ldrb	r3, [r5]	@ zero_extendqisi2
 229 010e 092B     		cmp	r3, #9
 230 0110 4FF00003 		mov	r3, #0
 231 0114 41D8     		bhi	.L20
 132:main.c        ****                 for (k=0;k<2;k++){
 133:main.c        ****                 UART_PutChar(count);
 134:main.c        ****                 UART_PutChar(0);
 135:main.c        ****             
 136:main.c        ****                 var = (uint8)(tempo[count] & 0xFF);
 232              		.loc 1 136 0 is_stmt 1
 233 0116 DFF8B090 		ldr	r9, .L22+28
 132:main.c        ****                 for (k=0;k<2;k++){
 234              		.loc 1 132 0
 235 011a 2370     		strb	r3, [r4]
 236              	.L9:
 132:main.c        ****                 for (k=0;k<2;k++){
 237              		.loc 1 132 0 is_stmt 0 discriminator 1
 238 011c 2378     		ldrb	r3, [r4]	@ zero_extendqisi2
 239 011e 012B     		cmp	r3, #1
 240 0120 2FD8     		bhi	.L21
 133:main.c        ****                 UART_PutChar(0);
 241              		.loc 1 133 0 is_stmt 1
 242 0122 2878     		ldrb	r0, [r5]	@ zero_extendqisi2
 243 0124 FFF7FEFF 		bl	UART_PutChar
 244              	.LVL25:
ARM GAS  C:\Users\mgnocco\AppData\Local\Temp\ccfXtYRe.s 			page 8


 134:main.c        ****             
 245              		.loc 1 134 0
 246 0128 0020     		movs	r0, #0
 247 012a FFF7FEFF 		bl	UART_PutChar
 248              	.LVL26:
 249              		.loc 1 136 0
 250 012e 2B78     		ldrb	r3, [r5]	@ zero_extendqisi2
 137:main.c        ****                 UART_PutChar(var);
 138:main.c        ****                 var = (uint8) (tempo[count] >> 8);
 139:main.c        ****                 UART_PutChar(var);
 251              		.loc 1 139 0
 252 0130 4FF0000B 		mov	fp, #0
 136:main.c        ****                 UART_PutChar(var);
 253              		.loc 1 136 0
 254 0134 17F81300 		ldrb	r0, [r7, r3, lsl #1]	@ zero_extendqisi2
 140:main.c        ****                 
 141:main.c        ****                 
 142:main.c        ****                 for (i = 0; i < 6; i++){
 143:main.c        ****                     UART_PutChar( Accel[k][count][i]);
 255              		.loc 1 143 0
 256 0138 4FF0060A 		mov	r10, #6
 136:main.c        ****                 UART_PutChar(var);
 257              		.loc 1 136 0
 258 013c 89F80000 		strb	r0, [r9]
 137:main.c        ****                 var = (uint8) (tempo[count] >> 8);
 259              		.loc 1 137 0
 260 0140 FFF7FEFF 		bl	UART_PutChar
 261              	.LVL27:
 138:main.c        ****                 UART_PutChar(var);
 262              		.loc 1 138 0
 263 0144 2B78     		ldrb	r3, [r5]	@ zero_extendqisi2
 264 0146 37F81300 		ldrh	r0, [r7, r3, lsl #1]
 265 014a 000A     		lsrs	r0, r0, #8
 266 014c 89F80000 		strb	r0, [r9]
 139:main.c        ****                 
 267              		.loc 1 139 0
 268 0150 FFF7FEFF 		bl	UART_PutChar
 269              	.LVL28:
 270              	.L10:
 271              		.loc 1 143 0 discriminator 3
 272 0154 2078     		ldrb	r0, [r4]	@ zero_extendqisi2
 273 0156 3C23     		movs	r3, #60
 274 0158 4343     		muls	r3, r0, r3
 275 015a 2978     		ldrb	r1, [r5]	@ zero_extendqisi2
 276 015c 164A     		ldr	r2, .L22+12
 277 015e 0AFB0133 		mla	r3, r10, r1, r3
 278 0162 1344     		add	r3, r3, r2
 279 0164 13F80B00 		ldrb	r0, [r3, fp]	@ zero_extendqisi2
 280 0168 0BF1010B 		add	fp, fp, #1
 281              	.LVL29:
 282 016c FFF7FEFF 		bl	UART_PutChar
 283              	.LVL30:
 142:main.c        ****                     UART_PutChar( Accel[k][count][i]);
 284              		.loc 1 142 0 discriminator 3
 285 0170 BBF1060F 		cmp	fp, #6
 286 0174 EED1     		bne	.L10
 132:main.c        ****                 UART_PutChar(count);
ARM GAS  C:\Users\mgnocco\AppData\Local\Temp\ccfXtYRe.s 			page 9


 287              		.loc 1 132 0 discriminator 2
 288 0176 98F80030 		ldrb	r3, [r8]	@ zero_extendqisi2
 289 017a 0133     		adds	r3, r3, #1
 290 017c 88F80030 		strb	r3, [r8]
 291 0180 CCE7     		b	.L9
 292              	.L21:
 144:main.c        ****                 }
 145:main.c        ****               /*  
 146:main.c        ****                 for (i = 0 ; i < 6; i++){
 147:main.c        ****                     UART_PutChar( Gyro[k][count][i]);
 148:main.c        ****                 }
 149:main.c        ****                                     
 150:main.c        ****                 for (i = 0; i < 6; i++){
 151:main.c        ****                     UART_PutChar( Mag[k][count][i]);
 152:main.c        ****                 }
 153:main.c        ****                 */
 154:main.c        ****                 
 155:main.c        **** }            UART_PutChar('c');
 293              		.loc 1 155 0 discriminator 2
 294 0182 6320     		movs	r0, #99
 295 0184 FFF7FEFF 		bl	UART_PutChar
 296              	.LVL31:
 156:main.c        ****                 UART_PutChar('i');
 297              		.loc 1 156 0 discriminator 2
 298 0188 6920     		movs	r0, #105
 299 018a FFF7FEFF 		bl	UART_PutChar
 300              	.LVL32:
 157:main.c        ****                 UART_PutChar('a');
 301              		.loc 1 157 0 discriminator 2
 302 018e 6120     		movs	r0, #97
 303 0190 FFF7FEFF 		bl	UART_PutChar
 304              	.LVL33:
 131:main.c        ****                 for (k=0;k<2;k++){
 305              		.loc 1 131 0 discriminator 2
 306 0194 2B78     		ldrb	r3, [r5]	@ zero_extendqisi2
 307 0196 0133     		adds	r3, r3, #1
 308 0198 B7E7     		b	.L16
 309              	.L20:
 158:main.c        ****             }
 159:main.c        **** 
 160:main.c        ****             j = 0;
 310              		.loc 1 160 0
 311 019a 3370     		strb	r3, [r6]
 312              	.L7:
 161:main.c        ****             
 162:main.c        ****         } 
 163:main.c        ****         
 164:main.c        ****         MY_TIMER_REG_Write(1);
 313              		.loc 1 164 0
 314 019c 0120     		movs	r0, #1
 315 019e FFF7FEFF 		bl	MY_TIMER_REG_Write
 316              	.LVL34:
 165:main.c        ****         
 166:main.c        ****         MY_TIMER_REG_Write(0);
 317              		.loc 1 166 0
 318 01a2 0020     		movs	r0, #0
 319 01a4 FFF7FEFF 		bl	MY_TIMER_REG_Write
ARM GAS  C:\Users\mgnocco\AppData\Local\Temp\ccfXtYRe.s 			page 10


 320              	.LVL35:
 167:main.c        ****         
 168:main.c        ****         
 169:main.c        ****     }
 321              		.loc 1 169 0
 322 01a8 6DE7     		b	.L13
 323              	.L23:
 324 01aa 00BF     		.align	2
 325              	.L22:
 326 01ac 00000000 		.word	k
 327 01b0 00000000 		.word	j
 328 01b4 00000000 		.word	count
 329 01b8 00000000 		.word	Accel
 330 01bc 00000000 		.word	t1
 331 01c0 00000000 		.word	tempo
 332 01c4 00000000 		.word	t0
 333 01c8 00000000 		.word	var
 334              		.cfi_endproc
 335              	.LFE64:
 336              		.size	main, .-main
 337              		.comm	var,1,1
 338              		.comm	k,1,1
 339              		.comm	count,1,1
 340              		.comm	j,1,1
 341              		.comm	tempo,20,2
 342              		.comm	t1,2,2
 343              		.comm	t0,2,2
 344              		.comm	SENS_HUB_ENDOP,1,1
 345              		.comm	XLDA,1,1
 346              		.comm	GDA,1,1
 347              		.comm	Temp,2,1
 348              		.comm	Gyro,120,1
 349              		.comm	Accel,120,1
 350              		.comm	Mag,120,1
 351              		.comm	g_imuNew,16,2
 352              		.comm	g_imu,16,2
 353              		.comm	IMU_ack,4,4
 354              		.text
 355              	.Letext0:
 356              		.file 2 "c:\\program files (x86)\\cypress\\psoc creator\\4.4\\psoc creator\\import\\gnu\\arm\\5.4.
 357              		.file 3 "c:\\program files (x86)\\cypress\\psoc creator\\4.4\\psoc creator\\import\\gnu\\arm\\5.4.
 358              		.file 4 "Generated_Source\\PSoC5/cytypes.h"
 359              		.file 5 "globals.h"
 360              		.file 6 "Generated_Source\\PSoC5/core_cm3.h"
 361              		.file 7 "Generated_Source\\PSoC5/MY_TIMER.h"
 362              		.file 8 "Generated_Source\\PSoC5/PACER_TIMER.h"
 363              		.file 9 "Generated_Source\\PSoC5/SPI_IMU.h"
 364              		.file 10 "Generated_Source\\PSoC5/CyLib.h"
 365              		.file 11 "Generated_Source\\PSoC5/UART.h"
 366              		.file 12 "Generated_Source\\PSoC5/Control_Reg_1.h"
 367              		.file 13 "header01.h"
 368              		.file 14 "Generated_Source\\PSoC5/MY_TIMER_REG.h"